target datalayout = "e-m:e-p270:32:32-p271:32:32-p272:64:64-i64:64-i128:128-f80:128-n8:16:32:64-S128"
target triple = "x86_64-pc-linux-gnu"

%struct._c_pkt_data = type { ptr, ptr, ptr, ptr, ptr, ptr, %struct._c_header }
%struct._c_header = type { i64, i64, i32, i16, i16, %struct._c_node_name }
%struct._c_node_name = type { ptr, ptr, i64, i32 }
%struct._packet_info = type { ptr, ptr, i32, i32, %struct.nstime_t, %struct.nstime_t, %struct.nstime_t, i8, ptr, ptr, ptr, ptr, %struct._address, %struct._address, %struct._address, %struct._address, %struct._address, %struct._address, i32, ptr, i8, [3 x i8], %struct.anon, i32, i32, i32, i32, ptr, i8, ptr, ptr, i16, i16, i32, i32, i16, i32, i32, ptr, ptr, ptr, i8, i8, i16, i16, i16, i32, i16, i16, ptr, ptr, ptr, ptr, ptr, i32, i32 }
%struct.nstime_t = type { i64, i32 }
%struct._address = type { i32, i32, ptr, ptr }
%struct.anon = type { i8, [3 x i8] }

@hf_features_low = internal global i32 0, align 4
@hf_features_high = internal global i32 0, align 4
@hf_connect_seq_global = internal global i32 0, align 4
@hf_connect_seq = internal global i32 0, align 4
@hf_connect_proto_ver = internal global i32 0, align 4
@hf_connect_auth_size = internal global i32 0, align 4
@hf_connect_auth = internal global i32 0, align 4
@hf_flags = internal global i32 0, align 4
@hf_connect_reply = internal global i32 0, align 4
@ett_connect_reply = internal global i32 0, align 4
@c_dissect_flags.flags = internal constant [2 x ptr] [ptr @hf_flag_lossy, ptr null], align 16
@.str.1603 = private unnamed_addr constant [4 x i8] c" %s\00", align 1
@.str.1609 = private unnamed_addr constant [14 x i8] c"Connect Reply\00", align 1

; Function Attrs: null_pointer_is_valid sspstrong uwtable
define internal i32 @c_dissect_flags(ptr noundef %0, ptr noundef %1, i32 noundef %2, ptr noundef %3) #0 {
  %5 = alloca ptr, align 8
  %6 = alloca ptr, align 8
  %7 = alloca i32, align 4
  %8 = alloca ptr, align 8
  store ptr %0, ptr %5, align 8
  store ptr %1, ptr %6, align 8
  store i32 %2, ptr %7, align 4
  store ptr %3, ptr %8, align 8
  %9 = load ptr, ptr %5, align 8
  %10 = load ptr, ptr %6, align 8
  %11 = load i32, ptr %7, align 4
  %12 = load i32, ptr @hf_flags, align 4
  %13 = load i32, ptr @hf_flags, align 4
  %14 = call ptr @proto_tree_add_bitmask(ptr noundef %9, ptr noundef %10, i32 noundef %11, i32 noundef %12, i32 noundef %13, ptr noundef @c_dissect_flags.flags, i32 noundef -2147483648)
  %15 = load i32, ptr %7, align 4
  %16 = add i32 %15, 1
  ret i32 %16
}

; Function Attrs: null_pointer_is_valid sspstrong uwtable
define internal i32 @c_dissect_features(ptr noundef %0, ptr noundef %1, i32 noundef %2, ptr noundef %3) #0 {
  %5 = alloca ptr, align 8
  %6 = alloca ptr, align 8
  %7 = alloca i32, align 4
  %8 = alloca ptr, align 8
  store ptr %0, ptr %5, align 8
  store ptr %1, ptr %6, align 8
  store i32 %2, ptr %7, align 4
  store ptr %3, ptr %8, align 8
  %9 = load ptr, ptr %5, align 8
  %10 = load ptr, ptr %6, align 8
  %11 = load i32, ptr %7, align 4
  %12 = load i32, ptr @hf_features_low, align 4
  %13 = load i32, ptr @hf_features_low, align 4
  %14 = call ptr @proto_tree_add_bitmask(ptr noundef %9, ptr noundef %10, i32 noundef %11, i32 noundef %12, i32 noundef %13, ptr noundef @c_dissect_features.lowword, i32 noundef -2147483648)
  %15 = load i32, ptr %7, align 4
  %16 = add i32 %15, 4
  store i32 %16, ptr %7, align 4
  %17 = load ptr, ptr %5, align 8
  %18 = load ptr, ptr %6, align 8
  %19 = load i32, ptr %7, align 4
  %20 = load i32, ptr @hf_features_high, align 4
  %21 = load i32, ptr @hf_features_high, align 4
  %22 = call ptr @proto_tree_add_bitmask(ptr noundef %17, ptr noundef %18, i32 noundef %19, i32 noundef %20, i32 noundef %21, ptr noundef @c_dissect_features.highword, i32 noundef -2147483648)
  %23 = load i32, ptr %7, align 4
  %24 = add i32 %23, 4
  store i32 %24, ptr %7, align 4
  %25 = load i32, ptr %7, align 4
  ret i32 %25
}

; Function Attrs: null_pointer_is_valid sspstrong uwtable
define internal void @c_set_type(ptr noundef %0, ptr noundef %1) #0 {
  %3 = alloca ptr, align 8
  %4 = alloca ptr, align 8
  store ptr %0, ptr %3, align 8
  store ptr %1, ptr %4, align 8
  %5 = load ptr, ptr %3, align 8
  %6 = getelementptr inbounds nuw %struct._c_pkt_data, ptr %5, i32 0, i32 5
  %7 = load ptr, ptr %6, align 8
  %8 = getelementptr inbounds nuw %struct._packet_info, ptr %7, i32 0, i32 1
  %9 = load ptr, ptr %8, align 8
  %10 = load ptr, ptr %4, align 8
  call void @col_add_str(ptr noundef %9, i32 noundef 25, ptr noundef %10)
  %11 = load ptr, ptr %3, align 8
  %12 = getelementptr inbounds nuw %struct._c_pkt_data, ptr %11, i32 0, i32 4
  %13 = load ptr, ptr %12, align 8
  %14 = load ptr, ptr %4, align 8
  call void (ptr, ptr, ...) @proto_item_append_text(ptr noundef %13, ptr noundef @.str.1603, ptr noundef %14)
  ret void
}

; Function Attrs: null_pointer_is_valid sspstrong uwtable
define internal i32 @c_dissect_connect_reply(ptr noundef %0, ptr noundef %1, i32 noundef %2, ptr noundef %3) #0 {
  %5 = alloca ptr, align 8
  %6 = alloca ptr, align 8
  %7 = alloca i32, align 4
  %8 = alloca ptr, align 8
  %9 = alloca ptr, align 8
  %10 = alloca ptr, align 8
  %11 = alloca i32, align 4
  store ptr %0, ptr %5, align 8
  store ptr %1, ptr %6, align 8
  store i32 %2, ptr %7, align 4
  store ptr %3, ptr %8, align 8
  call void @llvm.lifetime.start.p0(i64 8, ptr %9) #14
  call void @llvm.lifetime.start.p0(i64 8, ptr %10) #14
  call void @llvm.lifetime.start.p0(i64 4, ptr %11) #14
  %12 = load ptr, ptr %6, align 8
  %13 = load i32, ptr %7, align 4
  %14 = add i32 %13, 20
  %15 = call i32 @tvb_get_letohl(ptr noundef %12, i32 noundef %14)
  store i32 %15, ptr %11, align 4
  %16 = load ptr, ptr %8, align 8
  call void @c_set_type(ptr noundef %16, ptr noundef @.str.1609)
  %17 = load ptr, ptr %5, align 8
  %18 = load i32, ptr @hf_connect_reply, align 4
  %19 = load ptr, ptr %6, align 8
  %20 = load i32, ptr %7, align 4
  %21 = call ptr @proto_tree_add_item(ptr noundef %17, i32 noundef %18, ptr noundef %19, i32 noundef %20, i32 noundef 25, i32 noundef 0)
  store ptr %21, ptr %9, align 8
  %22 = load ptr, ptr %9, align 8
  %23 = load i32, ptr @ett_connect_reply, align 4
  %24 = call ptr @proto_item_add_subtree(ptr noundef %22, i32 noundef %23)
  store ptr %24, ptr %10, align 8
  %25 = load ptr, ptr %10, align 8
  %26 = load ptr, ptr %6, align 8
  %27 = load i32, ptr %7, align 4
  %28 = load ptr, ptr %8, align 8
  %29 = call i32 @c_dissect_features(ptr noundef %25, ptr noundef %26, i32 noundef %27, ptr noundef %28)
  store i32 %29, ptr %7, align 4
  %30 = load ptr, ptr %10, align 8
  %31 = load i32, ptr @hf_connect_seq_global, align 4
  %32 = load ptr, ptr %6, align 8
  %33 = load i32, ptr %7, align 4
  %34 = call ptr @proto_tree_add_item(ptr noundef %30, i32 noundef %31, ptr noundef %32, i32 noundef %33, i32 noundef 4, i32 noundef -2147483648)
  %35 = load i32, ptr %7, align 4
  %36 = add i32 %35, 4
  store i32 %36, ptr %7, align 4
  %37 = load ptr, ptr %10, align 8
  %38 = load i32, ptr @hf_connect_seq, align 4
  %39 = load ptr, ptr %6, align 8
  %40 = load i32, ptr %7, align 4
  %41 = call ptr @proto_tree_add_item(ptr noundef %37, i32 noundef %38, ptr noundef %39, i32 noundef %40, i32 noundef 4, i32 noundef -2147483648)
  %42 = load i32, ptr %7, align 4
  %43 = add i32 %42, 4
  store i32 %43, ptr %7, align 4
  %44 = load ptr, ptr %10, align 8
  %45 = load i32, ptr @hf_connect_proto_ver, align 4
  %46 = load ptr, ptr %6, align 8
  %47 = load i32, ptr %7, align 4
  %48 = call ptr @proto_tree_add_item(ptr noundef %44, i32 noundef %45, ptr noundef %46, i32 noundef %47, i32 noundef 4, i32 noundef -2147483648)
  %49 = load i32, ptr %7, align 4
  %50 = add i32 %49, 4
  store i32 %50, ptr %7, align 4
  %51 = load ptr, ptr %10, align 8
  %52 = load i32, ptr @hf_connect_auth_size, align 4
  %53 = load ptr, ptr %6, align 8
  %54 = load i32, ptr %7, align 4
  %55 = call ptr @proto_tree_add_item(ptr noundef %51, i32 noundef %52, ptr noundef %53, i32 noundef %54, i32 noundef 4, i32 noundef -2147483648)
  %56 = load i32, ptr %7, align 4
  %57 = add i32 %56, 4
  store i32 %57, ptr %7, align 4
  %58 = load ptr, ptr %10, align 8
  %59 = load ptr, ptr %6, align 8
  %60 = load i32, ptr %7, align 4
  %61 = load ptr, ptr %8, align 8
  %62 = call i32 @c_dissect_flags(ptr noundef %58, ptr noundef %59, i32 noundef %60, ptr noundef %61)
  store i32 %62, ptr %7, align 4
  %63 = load ptr, ptr %10, align 8
  %64 = load i32, ptr @hf_connect_auth, align 4
  %65 = load ptr, ptr %6, align 8
  %66 = load i32, ptr %7, align 4
  %67 = load i32, ptr %11, align 4
  %68 = call ptr @proto_tree_add_item(ptr noundef %63, i32 noundef %64, ptr noundef %65, i32 noundef %66, i32 noundef %67, i32 noundef 0)
  %69 = load i32, ptr %11, align 4
  %70 = load i32, ptr %7, align 4
  %71 = add i32 %70, %69
  store i32 %71, ptr %7, align 4
  %72 = load i32, ptr %7, align 4
  call void @llvm.lifetime.end.p0(i64 4, ptr %11) #14
  call void @llvm.lifetime.end.p0(i64 8, ptr %10) #14
  call void @llvm.lifetime.end.p0(i64 8, ptr %9) #14
  ret i32 %72
}