; Function Attrs: null_pointer_is_valid sspstrong uwtable
define internal fastcc i32 @c_dissect_connect_reply(ptr noundef %0, ptr noundef %1, i32 noundef range(i32 1, 0) %2, ptr noundef readonly captures(none) %3) unnamed_addr #0 {
  %5 = add i32 %2, 20
  %6 = tail call i32 @tvb_get_letohl(ptr noundef %1, i32 noundef %5)
  %7 = getelementptr inbounds nuw i8, ptr %3, i64 40
  %8 = load ptr, ptr %7, align 8
  %9 = getelementptr inbounds nuw i8, ptr %8, i64 8
  %10 = load ptr, ptr %9, align 8
  tail call void @col_add_str(ptr noundef %10, i32 noundef 25, ptr noundef nonnull @.str.1609)
  %11 = getelementptr inbounds nuw i8, ptr %3, i64 32
  %12 = load ptr, ptr %11, align 8
  tail call void (ptr, ptr, ...) @proto_item_append_text(ptr noundef %12, ptr noundef nonnull @.str.1603, ptr noundef nonnull @.str.1609)
  %13 = load i32, ptr @hf_connect_reply, align 4
  %14 = tail call ptr @proto_tree_add_item(ptr noundef %0, i32 noundef %13, ptr noundef %1, i32 noundef %2, i32 noundef 25, i32 noundef 0)
  %15 = load i32, ptr @ett_connect_reply, align 4
  %16 = tail call ptr @proto_item_add_subtree(ptr noundef %14, i32 noundef %15)
  %17 = load i32, ptr @hf_features_low, align 4
  %18 = tail call ptr @proto_tree_add_bitmask(ptr noundef %16, ptr noundef %1, i32 noundef %2, i32 noundef %17, i32 noundef %17, ptr noundef nonnull @c_dissect_features.lowword, i32 noundef -2147483648)
  %19 = add i32 %2, 4
  %20 = load i32, ptr @hf_features_high, align 4
  %21 = tail call ptr @proto_tree_add_bitmask(ptr noundef %16, ptr noundef %1, i32 noundef %19, i32 noundef %20, i32 noundef %20, ptr noundef nonnull @c_dissect_features.highword, i32 noundef -2147483648)
  %22 = add i32 %2, 8
  %23 = load i32, ptr @hf_connect_seq_global, align 4
  %24 = tail call ptr @proto_tree_add_item(ptr noundef %16, i32 noundef %23, ptr noundef %1, i32 noundef %22, i32 noundef 4, i32 noundef -2147483648)
  %25 = add i32 %2, 12
  %26 = load i32, ptr @hf_connect_seq, align 4
  %27 = tail call ptr @proto_tree_add_item(ptr noundef %16, i32 noundef %26, ptr noundef %1, i32 noundef %25, i32 noundef 4, i32 noundef -2147483648)
  %28 = add i32 %2, 16
  %29 = load i32, ptr @hf_connect_proto_ver, align 4
  %30 = tail call ptr @proto_tree_add_item(ptr noundef %16, i32 noundef %29, ptr noundef %1, i32 noundef %28, i32 noundef 4, i32 noundef -2147483648)
  %31 = load i32, ptr @hf_connect_auth_size, align 4
  %32 = tail call ptr @proto_tree_add_item(ptr noundef %16, i32 noundef %31, ptr noundef %1, i32 noundef %5, i32 noundef 4, i32 noundef -2147483648)
  %33 = add i32 %2, 24
  %34 = load i32, ptr @hf_flags, align 4
  %35 = tail call ptr @proto_tree_add_bitmask(ptr noundef %16, ptr noundef %1, i32 noundef %33, i32 noundef %34, i32 noundef %34, ptr noundef nonnull @c_dissect_flags.flags, i32 noundef -2147483648)
  %36 = add i32 %2, 25
  %37 = load i32, ptr @hf_connect_auth, align 4
  %38 = tail call ptr @proto_tree_add_item(ptr noundef %16, i32 noundef %37, ptr noundef %1, i32 noundef %36, i32 noundef %6, i32 noundef 0)
  %39 = add i32 %6, %36
  ret i32 %39
}